target datalayout = "e-m:e-p270:32:32-p271:32:32-p272:64:64-i64:64-i128:128-f80:128-n8:16:32:64-S128"
target triple = "x86_64-pc-linux-gnu"

%struct.ocsp_request_st = type { %struct.ocsp_req_info_st, ptr }
%struct.ocsp_req_info_st = type { ptr, ptr, ptr, ptr }
%struct.ocsp_basic_response_st = type { %struct.ocsp_response_data_st, %struct.X509_algor_st, ptr, ptr }
%struct.ocsp_response_data_st = type { ptr, %struct.ocsp_responder_id_st, ptr, ptr, ptr }
%struct.ocsp_responder_id_st = type { i32, %union.anon }
%union.anon = type { ptr }
%struct.X509_algor_st = type { ptr, ptr }

; Function Attrs: nounwind uwtable
define ptr @OCSP_BASICRESP_get_ext(ptr noundef %0, i32 noundef %1) #0 {
  %3 = alloca ptr, align 8
  %4 = alloca i32, align 4
  store ptr %0, ptr %3, align 8, !tbaa !32
  store i32 %1, ptr %4, align 4, !tbaa !16
  %5 = load ptr, ptr %3, align 8, !tbaa !32
  %6 = getelementptr inbounds nuw %struct.ocsp_basic_response_st, ptr %5, i32 0, i32 0
  %7 = getelementptr inbounds nuw %struct.ocsp_response_data_st, ptr %6, i32 0, i32 4
  %8 = load ptr, ptr %7, align 8, !tbaa !34
  %9 = load i32, ptr %4, align 4, !tbaa !16
  %10 = call ptr @X509v3_get_ext(ptr noundef %8, i32 noundef %9)
  ret ptr %10
}

; Function Attrs: nounwind uwtable
define ptr @OCSP_REQUEST_get_ext(ptr noundef %0, i32 noundef %1) #0 {
  %3 = alloca ptr, align 8
  %4 = alloca i32, align 4
  store ptr %0, ptr %3, align 8, !tbaa !3
  store i32 %1, ptr %4, align 4, !tbaa !16
  %5 = load ptr, ptr %3, align 8, !tbaa !3
  %6 = getelementptr inbounds nuw %struct.ocsp_request_st, ptr %5, i32 0, i32 0
  %7 = getelementptr inbounds nuw %struct.ocsp_req_info_st, ptr %6, i32 0, i32 3
  %8 = load ptr, ptr %7, align 8, !tbaa !8
  %9 = load i32, ptr %4, align 4, !tbaa !16
  %10 = call ptr @X509v3_get_ext(ptr noundef %8, i32 noundef %9)
  ret ptr %10
}

; Function Attrs: nounwind uwtable
define i32 @OCSP_BASICRESP_get_ext_by_NID(ptr noundef %0, i32 noundef %1, i32 noundef %2) #0 {
  %4 = alloca ptr, align 8
  %5 = alloca i32, align 4
  %6 = alloca i32, align 4
  store ptr %0, ptr %4, align 8, !tbaa !32
  store i32 %1, ptr %5, align 4, !tbaa !16
  store i32 %2, ptr %6, align 4, !tbaa !16
  %7 = load ptr, ptr %4, align 8, !tbaa !32
  %8 = getelementptr inbounds nuw %struct.ocsp_basic_response_st, ptr %7, i32 0, i32 0
  %9 = getelementptr inbounds nuw %struct.ocsp_response_data_st, ptr %8, i32 0, i32 4
  %10 = load ptr, ptr %9, align 8, !tbaa !34
  %11 = load i32, ptr %5, align 4, !tbaa !16
  %12 = load i32, ptr %6, align 4, !tbaa !16
  %13 = call i32 @X509v3_get_ext_by_NID(ptr noundef %10, i32 noundef %11, i32 noundef %12)
  ret i32 %13
}

; Function Attrs: nounwind uwtable
define i32 @OCSP_REQUEST_get_ext_by_NID(ptr noundef %0, i32 noundef %1, i32 noundef %2) #0 {
  %4 = alloca ptr, align 8
  %5 = alloca i32, align 4
  %6 = alloca i32, align 4
  store ptr %0, ptr %4, align 8, !tbaa !3
  store i32 %1, ptr %5, align 4, !tbaa !16
  store i32 %2, ptr %6, align 4, !tbaa !16
  %7 = load ptr, ptr %4, align 8, !tbaa !3
  %8 = getelementptr inbounds nuw %struct.ocsp_request_st, ptr %7, i32 0, i32 0
  %9 = getelementptr inbounds nuw %struct.ocsp_req_info_st, ptr %8, i32 0, i32 3
  %10 = load ptr, ptr %9, align 8, !tbaa !8
  %11 = load i32, ptr %5, align 4, !tbaa !16
  %12 = load i32, ptr %6, align 4, !tbaa !16
  %13 = call i32 @X509v3_get_ext_by_NID(ptr noundef %10, i32 noundef %11, i32 noundef %12)
  ret i32 %13
}

; Function Attrs: nounwind uwtable
define i32 @OCSP_check_nonce(ptr noundef %0, ptr noundef %1) #0 {
  %3 = alloca i32, align 4
  %4 = alloca ptr, align 8
  %5 = alloca ptr, align 8
  %6 = alloca i32, align 4
  %7 = alloca i32, align 4
  %8 = alloca ptr, align 8
  %9 = alloca ptr, align 8
  %10 = alloca i32, align 4
  store ptr %0, ptr %4, align 8, !tbaa !3
  store ptr %1, ptr %5, align 8, !tbaa !32
  call void @llvm.lifetime.start.p0(i64 4, ptr %6) #5
  call void @llvm.lifetime.start.p0(i64 4, ptr %7) #5
  call void @llvm.lifetime.start.p0(i64 8, ptr %8) #5
  call void @llvm.lifetime.start.p0(i64 8, ptr %9) #5
  %11 = load ptr, ptr %4, align 8, !tbaa !3
  %12 = call i32 @OCSP_REQUEST_get_ext_by_NID(ptr noundef %11, i32 noundef 366, i32 noundef -1)
  store i32 %12, ptr %6, align 4, !tbaa !16
  %13 = load ptr, ptr %5, align 8, !tbaa !32
  %14 = call i32 @OCSP_BASICRESP_get_ext_by_NID(ptr noundef %13, i32 noundef 366, i32 noundef -1)
  store i32 %14, ptr %7, align 4, !tbaa !16
  %15 = load i32, ptr %6, align 4, !tbaa !16
  %16 = icmp slt i32 %15, 0
  br i1 %16, label %17, label %21

17:                                               ; preds = %2
  %18 = load i32, ptr %7, align 4, !tbaa !16
  %19 = icmp slt i32 %18, 0
  br i1 %19, label %20, label %21

20:                                               ; preds = %17
  store i32 2, ptr %3, align 4
  store i32 1, ptr %10, align 4
  br label %50

21:                                               ; preds = %17, %2
  %22 = load i32, ptr %6, align 4, !tbaa !16
  %23 = icmp sge i32 %22, 0
  br i1 %23, label %24, label %28

24:                                               ; preds = %21
  %25 = load i32, ptr %7, align 4, !tbaa !16
  %26 = icmp slt i32 %25, 0
  br i1 %26, label %27, label %28

27:                                               ; preds = %24
  store i32 -1, ptr %3, align 4
  store i32 1, ptr %10, align 4
  br label %50

28:                                               ; preds = %24, %21
  %29 = load i32, ptr %6, align 4, !tbaa !16
  %30 = icmp slt i32 %29, 0
  br i1 %30, label %31, label %35

31:                                               ; preds = %28
  %32 = load i32, ptr %7, align 4, !tbaa !16
  %33 = icmp sge i32 %32, 0
  br i1 %33, label %34, label %35

34:                                               ; preds = %31
  store i32 3, ptr %3, align 4
  store i32 1, ptr %10, align 4
  br label %50

35:                                               ; preds = %31, %28
  %36 = load ptr, ptr %4, align 8, !tbaa !3
  %37 = load i32, ptr %6, align 4, !tbaa !16
  %38 = call ptr @OCSP_REQUEST_get_ext(ptr noundef %36, i32 noundef %37)
  store ptr %38, ptr %8, align 8, !tbaa !25
  %39 = load ptr, ptr %5, align 8, !tbaa !32
  %40 = load i32, ptr %7, align 4, !tbaa !16
  %41 = call ptr @OCSP_BASICRESP_get_ext(ptr noundef %39, i32 noundef %40)
  store ptr %41, ptr %9, align 8, !tbaa !25
  %42 = load ptr, ptr %8, align 8, !tbaa !25
  %43 = call ptr @X509_EXTENSION_get_data(ptr noundef %42)
  %44 = load ptr, ptr %9, align 8, !tbaa !25
  %45 = call ptr @X509_EXTENSION_get_data(ptr noundef %44)
  %46 = call i32 @ASN1_OCTET_STRING_cmp(ptr noundef %43, ptr noundef %45)
  %47 = icmp ne i32 %46, 0
  br i1 %47, label %48, label %49

48:                                               ; preds = %35
  store i32 0, ptr %3, align 4
  store i32 1, ptr %10, align 4
  br label %50

49:                                               ; preds = %35
  store i32 1, ptr %3, align 4
  store i32 1, ptr %10, align 4
  br label %50

50:                                               ; preds = %49, %48, %34, %27, %20
  call void @llvm.lifetime.end.p0(i64 8, ptr %9) #5
  call void @llvm.lifetime.end.p0(i64 8, ptr %8) #5
  call void @llvm.lifetime.end.p0(i64 4, ptr %7) #5
  call void @llvm.lifetime.end.p0(i64 4, ptr %6) #5
  %51 = load i32, ptr %3, align 4
  ret i32 %51
}