; Function Attrs: nounwind uwtable
define range(i32 -1, 4) i32 @OCSP_check_nonce(ptr noundef readonly captures(none) %0, ptr noundef readonly captures(none) %1) local_unnamed_addr #0 {
  %3 = getelementptr inbounds nuw i8, ptr %0, i64 24
  %4 = load ptr, ptr %3, align 8, !tbaa !3
  %5 = tail call i32 @X509v3_get_ext_by_NID(ptr noundef %4, i32 noundef 366, i32 noundef -1) #4
  %6 = getelementptr inbounds nuw i8, ptr %1, i64 40
  %7 = load ptr, ptr %6, align 8, !tbaa !17
  %8 = tail call i32 @X509v3_get_ext_by_NID(ptr noundef %7, i32 noundef 366, i32 noundef -1) #4
  %9 = icmp slt i32 %5, 0
  %10 = icmp slt i32 %8, 0
  %or.cond = select i1 %9, i1 %10, i1 false
  br i1 %or.cond, label %23, label %11

11:                                               ; preds = %2
  %12 = icmp sgt i32 %5, -1
  %or.cond3 = select i1 %12, i1 %10, i1 false
  br i1 %or.cond3, label %23, label %13

13:                                               ; preds = %11
  %14 = icmp sgt i32 %8, -1
  %or.cond5 = select i1 %9, i1 %14, i1 false
  br i1 %or.cond5, label %23, label %15

15:                                               ; preds = %13
  %16 = load ptr, ptr %3, align 8, !tbaa !3
  %17 = tail call ptr @X509v3_get_ext(ptr noundef %16, i32 noundef %5) #4
  %18 = load ptr, ptr %6, align 8, !tbaa !17
  %19 = tail call ptr @X509v3_get_ext(ptr noundef %18, i32 noundef %8) #4
  %20 = tail call ptr @X509_EXTENSION_get_data(ptr noundef %17) #4
  %21 = tail call ptr @X509_EXTENSION_get_data(ptr noundef %19) #4
  %22 = tail call i32 @ASN1_OCTET_STRING_cmp(ptr noundef %20, ptr noundef %21) #4
  %.not = icmp eq i32 %22, 0
  %. = zext i1 %.not to i32
  br label %23

23:                                               ; preds = %15, %13, %11, %2
  %.0 = phi i32 [ 2, %2 ], [ -1, %11 ], [ 3, %13 ], [ %., %15 ]
  ret i32 %.0
}